; Function Attrs: mustprogress nofree norecurse nosync nounwind willreturn memory(read, inaccessiblemem: none) uwtable
define noundef ptr @_ZNK19OpenColorIO_v2_5dev7Context13getSearchPathEi(ptr noundef nonnull readonly align 8 captures(none) dereferenceable(8) %0, i32 noundef %1) local_unnamed_addr #9 align 2 {
  %3 = icmp slt i32 %1, 0
  br i1 %3, label %18, label %4

4:                                                ; preds = %2
  %5 = load ptr, ptr %0, align 8, !tbaa !61
  %6 = getelementptr inbounds nuw i8, ptr %5, i64 8
  %7 = load ptr, ptr %6, align 8, !tbaa !68
  %8 = load ptr, ptr %5, align 8, !tbaa !67
  %9 = ptrtoint ptr %7 to i64
  %10 = ptrtoint ptr %8 to i64
  %11 = sub i64 %9, %10
  %12 = lshr exact i64 %11, 5
  %13 = trunc i64 %12 to i32
  %.not = icmp slt i32 %1, %13
  br i1 %.not, label %14, label %18

14:                                               ; preds = %4
  %15 = zext nneg i32 %1 to i64
  %16 = getelementptr inbounds nuw %"class.std::__cxx11::basic_string", ptr %8, i64 %15
  %17 = load ptr, ptr %16, align 8, !tbaa !66
  br label %18

18:                                               ; preds = %2, %4, %14
  %.0 = phi ptr [ %17, %14 ], [ @.str.5, %4 ], [ @.str.5, %2 ]
  ret ptr %.0
}